; Function Attrs: mustprogress nofree norecurse nosync nounwind willreturn memory(argmem: read) uwtable
define { i64, i64 } @_ZN7rocksdb18OffsetableCacheKey20FromInternalUniqueIdENS_11UniqueIdPtrE(ptr readonly captures(none) %0, i8 %1) local_unnamed_addr #4 align 2 {
  %3 = load i64, ptr %0, align 8, !tbaa !7
  %4 = getelementptr inbounds nuw i8, ptr %0, i64 8
  %5 = load i64, ptr %4, align 8, !tbaa !7
  %6 = icmp eq i64 %3, 0
  %spec.select = select i1 %6, i64 %5, i64 %3
  %7 = lshr i64 %spec.select, 32
  %8 = xor i64 %7, %spec.select
  %9 = lshr i64 %8, 16
  %10 = and i64 %9, 281470681808895
  %11 = xor i64 %10, %8
  %12 = lshr i64 %11, 8
  %13 = and i64 %12, 71777214294589695
  %14 = xor i64 %13, %11
  %15 = lshr i64 %14, 4
  %16 = and i64 %15, 1085102592571150095
  %17 = xor i64 %16, %14
  %18 = lshr i64 %17, 2
  %19 = and i64 %18, 3689348814741910323
  %20 = xor i64 %19, %17
  %21 = lshr i64 %20, 1
  %22 = and i64 %21, 6148914691236517205
  %23 = tail call noundef i64 @llvm.bitreverse.i64(i64 %5)
  %24 = xor i64 %22, %23
  %25 = xor i64 %24, %20
  %26 = tail call noundef i64 @llvm.bitreverse.i64(i64 %spec.select)
  %27 = icmp eq i64 %24, %20
  %spec.select11 = select i1 %27, i64 %26, i64 %25
  %spec.select12 = select i1 %27, i64 0, i64 %26
  %.fca.0.insert = insertvalue { i64, i64 } poison, i64 %spec.select11, 0
  %.fca.1.insert = insertvalue { i64, i64 } %.fca.0.insert, i64 %spec.select12, 1
  ret { i64, i64 } %.fca.1.insert
}